; Function Attrs: nounwind uwtable
define void @ff_h264_flush_change(ptr noundef initializes((735696, 735700), (736532, 736536)) %0) local_unnamed_addr #2 {
  %2 = getelementptr inbounds nuw i8, ptr %0, i64 735696
  store i32 -2147483648, ptr %2, align 8, !tbaa !147
  %3 = getelementptr inbounds nuw i8, ptr %0, i64 736532
  store i32 1, ptr %3, align 4, !tbaa !148
  tail call void @ff_h264_remove_all_refs(ptr noundef %0) #11
  %4 = getelementptr inbounds nuw i8, ptr %0, i64 734844
  store i32 0, ptr %4, align 4, !tbaa !149
  %5 = getelementptr inbounds nuw i8, ptr %0, i64 734848
  %6 = getelementptr inbounds nuw i8, ptr %0, i64 734832
  store i32 65536, ptr %6, align 8, !tbaa !150
  %7 = getelementptr inbounds nuw i8, ptr %0, i64 734836
  store i32 -1, ptr %7, align 4, !tbaa !151
  %8 = getelementptr inbounds nuw i8, ptr %0, i64 735624
  br label %9

9:                                                ; preds = %9, %1
  %indvars.iv.i = phi i64 [ 0, %1 ], [ %indvars.iv.next.i, %9 ]
  %10 = getelementptr inbounds nuw [16 x i32], ptr %8, i64 0, i64 %indvars.iv.i
  store i32 -2147483648, ptr %10, align 4, !tbaa !89
  %indvars.iv.next.i = add nuw nsw i64 %indvars.iv.i, 1
  %exitcond.not.i = icmp eq i64 %indvars.iv.next.i, 16
  br i1 %exitcond.not.i, label %idr.exit, label %9, !llvm.loop !152

idr.exit:                                         ; preds = %9
  store i32 -1, ptr %5, align 8, !tbaa !153
  %11 = getelementptr inbounds nuw i8, ptr %0, i64 729200
  %12 = load ptr, ptr %11, align 8, !tbaa !154
  %.not = icmp eq ptr %12, null
  br i1 %.not, label %28, label %13

13:                                               ; preds = %idr.exit
  %14 = getelementptr inbounds nuw i8, ptr %12, i64 700
  store i32 0, ptr %14, align 4, !tbaa !155
  %15 = getelementptr inbounds nuw i8, ptr %0, i64 735480
  %16 = load ptr, ptr %15, align 8, !tbaa !156
  %.not2628 = icmp eq ptr %16, null
  br i1 %.not2628, label %._crit_edge, label %.lr.ph

.lr.ph:                                           ; preds = %13, %23
  %indvars.iv = phi i64 [ %indvars.iv.next, %23 ], [ 0, %13 ]
  %17 = phi ptr [ %25, %23 ], [ %16, %13 ]
  %.030 = phi i32 [ %.1, %23 ], [ 0, %13 ]
  %18 = load ptr, ptr %11, align 8, !tbaa !154
  %.not27 = icmp eq ptr %17, %18
  br i1 %.not27, label %23, label %19

19:                                               ; preds = %.lr.ph
  %20 = add nsw i32 %.030, 1
  %21 = sext i32 %.030 to i64
  %22 = getelementptr inbounds [18 x ptr], ptr %15, i64 0, i64 %21
  store ptr %17, ptr %22, align 8, !tbaa !156
  br label %23

23:                                               ; preds = %.lr.ph, %19
  %.1 = phi i32 [ %20, %19 ], [ %.030, %.lr.ph ]
  %indvars.iv.next = add nuw nsw i64 %indvars.iv, 1
  %24 = getelementptr inbounds nuw [18 x ptr], ptr %15, i64 0, i64 %indvars.iv.next
  %25 = load ptr, ptr %24, align 8, !tbaa !156
  %.not26 = icmp eq ptr %25, null
  br i1 %.not26, label %._crit_edge.loopexit, label %.lr.ph, !llvm.loop !157

._crit_edge.loopexit:                             ; preds = %23
  %26 = sext i32 %.1 to i64
  br label %._crit_edge

._crit_edge:                                      ; preds = %._crit_edge.loopexit, %13
  %.0.lcssa = phi i64 [ 0, %13 ], [ %26, %._crit_edge.loopexit ]
  %27 = getelementptr inbounds [18 x ptr], ptr %15, i64 0, i64 %.0.lcssa
  store ptr null, ptr %27, align 8, !tbaa !156
  br label %28

28:                                               ; preds = %._crit_edge, %idr.exit
  %29 = getelementptr inbounds nuw i8, ptr %0, i64 729968
  tail call void @ff_h264_unref_picture(ptr noundef nonnull %29) #11
  %30 = getelementptr inbounds nuw i8, ptr %0, i64 731776
  store i32 0, ptr %30, align 8, !tbaa !83
  %31 = getelementptr inbounds nuw i8, ptr %0, i64 736540
  store i32 -1, ptr %31, align 4, !tbaa !158
  %32 = getelementptr inbounds nuw i8, ptr %0, i64 736544
  store i32 0, ptr %32, align 8, !tbaa !159
  %33 = getelementptr inbounds nuw i8, ptr %0, i64 736528
  store i32 0, ptr %33, align 8, !tbaa !160
  %34 = getelementptr inbounds nuw i8, ptr %0, i64 736512
  store i32 1, ptr %34, align 8, !tbaa !161
  ret void
}